target datalayout = "e-m:e-p270:32:32-p271:32:32-p272:64:64-i64:64-i128:128-f80:128-n8:16:32:64-S128"
target triple = "x86_64-pc-linux-gnu"

%struct.expert_field = type { i32, i32 }
%struct._packet_info = type { ptr, ptr, i32, i32, %struct.nstime_t, %struct.nstime_t, %struct.nstime_t, i8, ptr, ptr, ptr, ptr, %struct._address, %struct._address, %struct._address, %struct._address, %struct._address, %struct._address, i32, ptr, i8, [3 x i8], %struct.anon, i32, i32, i32, i32, ptr, i8, ptr, ptr, i16, i16, i32, i32, i16, i32, i32, ptr, ptr, ptr, i8, i8, i16, i16, i16, i32, i16, i16, ptr, ptr, ptr, ptr, ptr, i32, i32 }
%struct.nstime_t = type { i64, i32 }
%struct._address = type { i32, i32, ptr, ptr }
%struct.anon = type { i8, [3 x i8] }

@ei_gsm_a_gm_extraneous_data = internal global %struct.expert_field zeroinitializer, align 4

; Function Attrs: null_pointer_is_valid sspstrong uwtable
define internal void @dtap_sm_deact_pdp_acc(ptr noundef %0, ptr noundef %1, ptr noundef %2, i32 noundef %3, i32 noundef %4) #1 {
  %6 = alloca ptr, align 8
  %7 = alloca ptr, align 8
  %8 = alloca ptr, align 8
  %9 = alloca i32, align 4
  %10 = alloca i32, align 4
  %11 = alloca i32, align 4
  %12 = alloca i32, align 4
  %13 = alloca i32, align 4
  %14 = alloca i32, align 4
  store ptr %0, ptr %6, align 8
  store ptr %1, ptr %7, align 8
  store ptr %2, ptr %8, align 8
  store i32 %3, ptr %9, align 4
  store i32 %4, ptr %10, align 4
  call void @llvm.lifetime.start.p0(i64 4, ptr %11) #6
  call void @llvm.lifetime.start.p0(i64 4, ptr %12) #6
  call void @llvm.lifetime.start.p0(i64 4, ptr %13) #6
  %15 = load i32, ptr %9, align 4
  store i32 %15, ptr %11, align 4
  %16 = load i32, ptr %10, align 4
  store i32 %16, ptr %13, align 4
  %17 = load ptr, ptr %8, align 8
  %18 = getelementptr inbounds nuw %struct._packet_info, ptr %17, i32 0, i32 37
  store i32 -1, ptr %18, align 4
  %19 = load ptr, ptr %8, align 8
  %20 = getelementptr inbounds nuw %struct._packet_info, ptr %19, i32 0, i32 46
  store i32 -1, ptr %20, align 8
  %21 = load i32, ptr %13, align 4
  %22 = icmp sle i32 %21, 0
  br i1 %22, label %23, label %24

23:                                               ; preds = %5
  store i32 1, ptr %14, align 4
  br label %96

24:                                               ; preds = %5
  %25 = load ptr, ptr %6, align 8
  %26 = load ptr, ptr %7, align 8
  %27 = load ptr, ptr %8, align 8
  %28 = load i32, ptr %11, align 4
  %29 = load i32, ptr %13, align 4
  %30 = call zeroext i16 @elem_tlv(ptr noundef %25, ptr noundef %26, ptr noundef %27, i8 noundef zeroext 39, i32 noundef 5, i32 noundef 45, i32 noundef %28, i32 noundef %29, ptr noundef null)
  %31 = zext i16 %30 to i32
  store i32 %31, ptr %12, align 4
  %32 = icmp ugt i32 %31, 0
  br i1 %32, label %33, label %40

33:                                               ; preds = %24
  %34 = load i32, ptr %12, align 4
  %35 = load i32, ptr %11, align 4
  %36 = add i32 %35, %34
  store i32 %36, ptr %11, align 4
  %37 = load i32, ptr %12, align 4
  %38 = load i32, ptr %13, align 4
  %39 = sub i32 %38, %37
  store i32 %39, ptr %13, align 4
  br label %40

40:                                               ; preds = %33, %24
  %41 = load i32, ptr %13, align 4
  %42 = icmp sle i32 %41, 0
  br i1 %42, label %43, label %44

43:                                               ; preds = %40
  store i32 1, ptr %14, align 4
  br label %96

44:                                               ; preds = %40
  %45 = load ptr, ptr %6, align 8
  %46 = load ptr, ptr %7, align 8
  %47 = load ptr, ptr %8, align 8
  %48 = load i32, ptr %11, align 4
  %49 = load i32, ptr %13, align 4
  %50 = call zeroext i16 @elem_tlv(ptr noundef %45, ptr noundef %46, ptr noundef %47, i8 noundef zeroext 53, i32 noundef 5, i32 noundef 60, i32 noundef %48, i32 noundef %49, ptr noundef null)
  %51 = zext i16 %50 to i32
  store i32 %51, ptr %12, align 4
  %52 = icmp ugt i32 %51, 0
  br i1 %52, label %53, label %60

53:                                               ; preds = %44
  %54 = load i32, ptr %12, align 4
  %55 = load i32, ptr %11, align 4
  %56 = add i32 %55, %54
  store i32 %56, ptr %11, align 4
  %57 = load i32, ptr %12, align 4
  %58 = load i32, ptr %13, align 4
  %59 = sub i32 %58, %57
  store i32 %59, ptr %13, align 4
  br label %60

60:                                               ; preds = %53, %44
  %61 = load i32, ptr %13, align 4
  %62 = icmp sle i32 %61, 0
  br i1 %62, label %63, label %64

63:                                               ; preds = %60
  store i32 1, ptr %14, align 4
  br label %96

64:                                               ; preds = %60
  %65 = load ptr, ptr %6, align 8
  %66 = load ptr, ptr %7, align 8
  %67 = load ptr, ptr %8, align 8
  %68 = load i32, ptr %11, align 4
  %69 = load i32, ptr %13, align 4
  %70 = call zeroext i16 @elem_tlv_e(ptr noundef %65, ptr noundef %66, ptr noundef %67, i8 noundef zeroext 123, i32 noundef 5, i32 noundef 46, i32 noundef %68, i32 noundef %69, ptr noundef null)
  %71 = zext i16 %70 to i32
  store i32 %71, ptr %12, align 4
  %72 = icmp ugt i32 %71, 0
  br i1 %72, label %73, label %80

73:                                               ; preds = %64
  %74 = load i32, ptr %12, align 4
  %75 = load i32, ptr %11, align 4
  %76 = add i32 %75, %74
  store i32 %76, ptr %11, align 4
  %77 = load i32, ptr %12, align 4
  %78 = load i32, ptr %13, align 4
  %79 = sub i32 %78, %77
  store i32 %79, ptr %13, align 4
  br label %80

80:                                               ; preds = %73, %64
  %81 = load i32, ptr %13, align 4
  %82 = icmp ugt i32 %81, 0
  br i1 %82, label %83, label %95

83:                                               ; preds = %80
  %84 = load ptr, ptr %7, align 8
  %85 = load ptr, ptr %8, align 8
  %86 = load ptr, ptr %6, align 8
  %87 = load i32, ptr %11, align 4
  %88 = load i32, ptr %13, align 4
  %89 = sub i32 %88, 0
  %90 = call ptr @proto_tree_add_expert(ptr noundef %84, ptr noundef %85, ptr noundef @ei_gsm_a_gm_extraneous_data, ptr noundef %86, i32 noundef %87, i32 noundef %89)
  %91 = load i32, ptr %13, align 4
  %92 = sub i32 %91, 0
  %93 = load i32, ptr %11, align 4
  %94 = add i32 %93, %92
  store i32 %94, ptr %11, align 4
  br label %95

95:                                               ; preds = %83, %80
  store i32 0, ptr %14, align 4
  br label %96

96:                                               ; preds = %95, %63, %43, %23
  call void @llvm.lifetime.end.p0(i64 4, ptr %13) #6
  call void @llvm.lifetime.end.p0(i64 4, ptr %12) #6
  call void @llvm.lifetime.end.p0(i64 4, ptr %11) #6
  %97 = load i32, ptr %14, align 4
  switch i32 %97, label %99 [
    i32 0, label %98
    i32 1, label %98
  ]

98:                                               ; preds = %96, %96
  ret void

99:                                               ; preds = %96
  unreachable
}