; Function Attrs: null_pointer_is_valid sspstrong uwtable
define internal void @dtap_sm_deact_pdp_acc(ptr noundef %0, ptr noundef %1, ptr noundef initializes((348, 352), (384, 388)) %2, i32 noundef %3, i32 noundef %4) #1 {
  %6 = getelementptr inbounds nuw i8, ptr %2, i64 348
  store i32 -1, ptr %6, align 4
  %7 = getelementptr inbounds nuw i8, ptr %2, i64 384
  store i32 -1, ptr %7, align 8
  %8 = icmp slt i32 %4, 1
  br i1 %8, label %28, label %9

9:                                                ; preds = %5
  %10 = tail call zeroext i16 @elem_tlv(ptr noundef %0, ptr noundef %1, ptr noundef %2, i8 noundef zeroext 39, i32 noundef 5, i32 noundef 45, i32 noundef %3, i32 noundef %4, ptr noundef null)
  %11 = zext i16 %10 to i32
  %12 = sub nsw i32 %4, %11
  %13 = icmp slt i32 %12, 1
  br i1 %13, label %28, label %14

14:                                               ; preds = %9
  %15 = add i32 %3, %11
  %16 = tail call zeroext i16 @elem_tlv(ptr noundef %0, ptr noundef %1, ptr noundef %2, i8 noundef zeroext 53, i32 noundef 5, i32 noundef 60, i32 noundef %15, i32 noundef %12, ptr noundef null)
  %17 = zext i16 %16 to i32
  %18 = sub nsw i32 %12, %17
  %19 = icmp slt i32 %18, 1
  br i1 %19, label %28, label %20

20:                                               ; preds = %14
  %21 = add i32 %15, %17
  %22 = tail call zeroext i16 @elem_tlv_e(ptr noundef %0, ptr noundef %1, ptr noundef %2, i8 noundef zeroext 123, i32 noundef 5, i32 noundef 46, i32 noundef %21, i32 noundef %18, ptr noundef null)
  %23 = zext i16 %22 to i32
  %.not50 = icmp eq i32 %18, %23
  br i1 %.not50, label %28, label %24

24:                                               ; preds = %20
  %25 = sub nsw i32 %18, %23
  %26 = add i32 %21, %23
  %27 = tail call ptr @proto_tree_add_expert(ptr noundef %1, ptr noundef %2, ptr noundef nonnull @ei_gsm_a_gm_extraneous_data, ptr noundef %0, i32 noundef %26, i32 noundef %25)
  br label %28

28:                                               ; preds = %20, %24, %14, %9, %5
  ret void
}